; Function Attrs: mustprogress nofree norecurse nosync nounwind willreturn memory(argmem: read) uwtable
define { double, double } @gvrender_ptf(ptr noundef readonly captures(none) %0, double %1, double %2) local_unnamed_addr #4 {
  %4 = getelementptr inbounds nuw i8, ptr %0, i64 632
  %.sroa.03.0.copyload = load double, ptr %4, align 8, !tbaa !70
  %.sroa.55.0..sroa_idx = getelementptr inbounds nuw i8, ptr %0, i64 640
  %.sroa.55.0.copyload = load double, ptr %.sroa.55.0..sroa_idx, align 8, !tbaa !70
  %5 = getelementptr inbounds nuw i8, ptr %0, i64 480
  %6 = load double, ptr %5, align 8, !tbaa !71
  %7 = getelementptr inbounds nuw i8, ptr %0, i64 648
  %8 = load double, ptr %7, align 8, !tbaa !72
  %9 = fmul double %6, %8
  %10 = getelementptr inbounds nuw i8, ptr %0, i64 656
  %11 = load double, ptr %10, align 8, !tbaa !73
  %12 = getelementptr inbounds nuw i8, ptr %0, i64 488
  %13 = load i32, ptr %12, align 8, !tbaa !74
  %.not = icmp eq i32 %13, 0
  br i1 %.not, label %19, label %14

14:                                               ; preds = %3
  %15 = fadd double %2, %.sroa.55.0.copyload
  %16 = fneg double %15
  %17 = fmul double %9, %16
  %18 = fadd double %1, %.sroa.03.0.copyload
  br label %23

19:                                               ; preds = %3
  %20 = fadd double %1, %.sroa.03.0.copyload
  %21 = fmul double %20, %9
  %22 = fadd double %2, %.sroa.55.0.copyload
  br label %23

23:                                               ; preds = %19, %14
  %.sroa.015.0 = phi double [ %17, %14 ], [ %21, %19 ]
  %.pn = phi double [ %18, %14 ], [ %22, %19 ]
  %24 = fmul double %6, %11
  %.sroa.316.0 = fmul double %24, %.pn
  %.fca.0.insert = insertvalue { double, double } poison, double %.sroa.015.0, 0
  %.fca.1.insert = insertvalue { double, double } %.fca.0.insert, double %.sroa.316.0, 1
  ret { double, double } %.fca.1.insert
}